; ModuleID = 'source-C-CXX/18/1447.c'
source_filename = "source-C-CXX/18/1447.c"
target datalayout = "e-m:e-p270:32:32-p271:32:32-p272:64:64-i64:64-f80:128-n8:16:32:64-S128"
target triple = "x86_64-pc-linux-gnu"

@.str = private unnamed_addr constant [3 x i8] c"%s\00", align 1
@.str.1 = private unnamed_addr constant [4 x i8] c"%s \00", align 1
@.str.2 = private unnamed_addr constant [3 x i8] c"%d\00", align 1

; Function Attrs: nounwind sspstrong uwtable
define dso_local i32 @main() local_unnamed_addr #0 {
  %1 = alloca [100 x i8], align 16
  %2 = alloca [100 x i8], align 16
  %3 = alloca [100 x i8], align 16
  %4 = alloca [50 x [100 x i8]], align 16
  %5 = alloca [100 x i32], align 16
  %6 = alloca i32, align 4
  %7 = getelementptr inbounds [100 x i8], [100 x i8]* %1, i64 0, i64 0
  call void @llvm.lifetime.start.p0i8(i64 100, i8* nonnull %7) #6
  %8 = getelementptr inbounds [100 x i8], [100 x i8]* %2, i64 0, i64 0
  call void @llvm.lifetime.start.p0i8(i64 100, i8* nonnull %8) #6
  %9 = getelementptr inbounds [100 x i8], [100 x i8]* %3, i64 0, i64 0
  call void @llvm.lifetime.start.p0i8(i64 100, i8* nonnull %9) #6
  %10 = getelementptr inbounds [50 x [100 x i8]], [50 x [100 x i8]]* %4, i64 0, i64 0, i64 0
  call void @llvm.lifetime.start.p0i8(i64 5000, i8* nonnull %10) #6
  %11 = bitcast [100 x i32]* %5 to i8*
  call void @llvm.lifetime.start.p0i8(i64 400, i8* nonnull %11) #6
  %12 = call i32 (i8*, ...) bitcast (i32 (...)* @gets to i32 (i8*, ...)*)(i8* nonnull %7) #6
  %13 = call i32 (i8*, ...) @__isoc99_scanf(i8* getelementptr inbounds ([3 x i8], [3 x i8]* @.str, i64 0, i64 0), i8* nonnull %8)
  %14 = call i32 (i8*, ...) @__isoc99_scanf(i8* getelementptr inbounds ([3 x i8], [3 x i8]* @.str, i64 0, i64 0), i8* nonnull %9)
  br label %15

15:                                               ; preds = %0, %36
  %16 = phi i64 [ 0, %0 ], [ %32, %36 ]
  %17 = phi i32 [ 0, %0 ], [ %42, %36 ]
  %18 = zext i32 %17 to i64
  br label %19

19:                                               ; preds = %15, %26
  %20 = phi i64 [ %30, %26 ], [ %16, %15 ]
  %21 = phi i32 [ %29, %26 ], [ 0, %15 ]
  br label %22

22:                                               ; preds = %19, %31
  %23 = phi i64 [ %32, %31 ], [ %20, %19 ]
  %24 = getelementptr inbounds [100 x i8], [100 x i8]* %1, i64 0, i64 %23
  %25 = load i8, i8* %24, align 1, !tbaa !5
  switch i8 %25, label %26 [
    i8 0, label %43
    i8 32, label %31
  ]

26:                                               ; preds = %22
  %27 = zext i32 %21 to i64
  %28 = getelementptr inbounds [50 x [100 x i8]], [50 x [100 x i8]]* %4, i64 0, i64 %18, i64 %27
  store i8 %25, i8* %28, align 1, !tbaa !5
  %29 = add nuw nsw i32 %21, 1
  %30 = add nuw i64 %23, 1
  br label %19, !llvm.loop !8

31:                                               ; preds = %22
  %32 = add nuw i64 %23, 1
  %33 = getelementptr inbounds [100 x i8], [100 x i8]* %1, i64 0, i64 %32
  %34 = load i8, i8* %33, align 1, !tbaa !5
  %35 = icmp eq i8 %34, 32
  br i1 %35, label %22, label %36, !llvm.loop !8

36:                                               ; preds = %31
  %37 = zext i32 %17 to i64
  %38 = getelementptr inbounds [100 x i32], [100 x i32]* %5, i64 0, i64 %37
  %39 = trunc i64 %23 to i32
  store i32 %39, i32* %38, align 4, !tbaa !10
  %40 = zext i32 %21 to i64
  %41 = getelementptr inbounds [50 x [100 x i8]], [50 x [100 x i8]]* %4, i64 0, i64 %37, i64 %40
  store i8 0, i8* %41, align 1, !tbaa !5
  %42 = add nuw nsw i32 %17, 1
  br label %15, !llvm.loop !8

43:                                               ; preds = %22
  %44 = call i64 @strlen(i8* noundef nonnull %7) #7
  %45 = add nsw i32 %17, -1
  %46 = sext i32 %45 to i64
  %47 = getelementptr inbounds [100 x i32], [100 x i32]* %5, i64 0, i64 %46
  %48 = load i32, i32* %47, align 4, !tbaa !10
  %49 = trunc i64 %44 to i32
  %50 = zext i32 %17 to i64
  %51 = xor i32 %48, -1
  %52 = add i32 %51, %49
  %53 = sext i32 %52 to i64
  %54 = getelementptr inbounds [50 x [100 x i8]], [50 x [100 x i8]]* %4, i64 0, i64 %50, i64 %53
  store i8 0, i8* %54, align 1, !tbaa !5
  %55 = add nuw i32 %17, 1
  %56 = zext i32 %55 to i64
  br label %61

57:                                               ; preds = %68
  %58 = icmp eq i32 %17, 0
  br i1 %58, label %77, label %59

59:                                               ; preds = %57
  %60 = zext i32 %17 to i64
  br label %71

61:                                               ; preds = %43, %68
  %62 = phi i64 [ 0, %43 ], [ %69, %68 ]
  %63 = getelementptr inbounds [50 x [100 x i8]], [50 x [100 x i8]]* %4, i64 0, i64 %62, i64 0
  %64 = call i32 @strcmp(i8* noundef nonnull %8, i8* noundef nonnull %63) #7
  %65 = icmp eq i32 %64, 0
  br i1 %65, label %66, label %68

66:                                               ; preds = %61
  %67 = call i8* @strcpy(i8* noundef nonnull %63, i8* noundef nonnull %9) #6
  br label %68

68:                                               ; preds = %61, %66
  %69 = add nuw nsw i64 %62, 1
  %70 = icmp eq i64 %69, %56
  br i1 %70, label %57, label %61, !llvm.loop !12

71:                                               ; preds = %59, %71
  %72 = phi i64 [ 0, %59 ], [ %75, %71 ]
  %73 = getelementptr inbounds [50 x [100 x i8]], [50 x [100 x i8]]* %4, i64 0, i64 %72, i64 0
  %74 = call i32 (i8*, ...) @printf(i8* nonnull dereferenceable(1) getelementptr inbounds ([4 x i8], [4 x i8]* @.str.1, i64 0, i64 0), i8* nonnull %73)
  %75 = add nuw nsw i64 %72, 1
  %76 = icmp eq i64 %75, %60
  br i1 %76, label %77, label %71, !llvm.loop !13

77:                                               ; preds = %71, %57
  %78 = getelementptr inbounds [50 x [100 x i8]], [50 x [100 x i8]]* %4, i64 0, i64 %50, i64 0
  %79 = call i32 (i8*, ...) @printf(i8* nonnull dereferenceable(1) getelementptr inbounds ([3 x i8], [3 x i8]* @.str, i64 0, i64 0), i8* nonnull %78)
  %80 = bitcast i32* %6 to i8*
  call void @llvm.lifetime.start.p0i8(i64 4, i8* nonnull %80) #6
  %81 = call i32 (i8*, ...) @__isoc99_scanf(i8* getelementptr inbounds ([3 x i8], [3 x i8]* @.str.2, i64 0, i64 0), i32* nonnull %6)
  call void @llvm.lifetime.end.p0i8(i64 4, i8* nonnull %80) #6
  call void @llvm.lifetime.end.p0i8(i64 400, i8* nonnull %11) #6
  call void @llvm.lifetime.end.p0i8(i64 5000, i8* nonnull %10) #6
  call void @llvm.lifetime.end.p0i8(i64 100, i8* nonnull %9) #6
  call void @llvm.lifetime.end.p0i8(i64 100, i8* nonnull %8) #6
  call void @llvm.lifetime.end.p0i8(i64 100, i8* nonnull %7) #6
  ret i32 0
}

; Function Attrs: argmemonly mustprogress nofree nosync nounwind willreturn
declare void @llvm.lifetime.start.p0i8(i64 immarg, i8* nocapture) #1

declare i32 @gets(...) local_unnamed_addr #2

; Function Attrs: nofree nounwind
declare noundef i32 @__isoc99_scanf(i8* nocapture noundef readonly, ...) local_unnamed_addr #3

; Function Attrs: argmemonly mustprogress nofree nounwind readonly willreturn
declare i64 @strlen(i8* nocapture) local_unnamed_addr #4

; Function Attrs: argmemonly mustprogress nofree nounwind readonly willreturn
declare i32 @strcmp(i8* nocapture, i8* nocapture) local_unnamed_addr #4

; Function Attrs: argmemonly mustprogress nofree nounwind willreturn
declare i8* @strcpy(i8* noalias returned writeonly, i8* noalias nocapture readonly) local_unnamed_addr #5

; Function Attrs: nofree nounwind
declare noundef i32 @printf(i8* nocapture noundef readonly, ...) local_unnamed_addr #3

; Function Attrs: argmemonly mustprogress nofree nosync nounwind willreturn
declare void @llvm.lifetime.end.p0i8(i64 immarg, i8* nocapture) #1


!llvm.module.flags = !{!0, !1, !2, !3}
!llvm.ident = !{!4}

!0 = !{i32 1, !"wchar_size", i32 4}
!1 = !{i32 7, !"PIC Level", i32 2}
!2 = !{i32 7, !"PIE Level", i32 2}
!3 = !{i32 7, !"uwtable", i32 1}
!4 = !{!"clang version 13.0.0"}
!5 = !{!6, !6, i64 0}
!6 = !{!"omnipotent char", !7, i64 0}
!7 = !{!"Simple C/C++ TBAA"}
!8 = distinct !{!8, !9}
!9 = !{!"llvm.loop.mustprogress"}
!10 = !{!11, !11, i64 0}
!11 = !{!"int", !6, i64 0}
!12 = distinct !{!12, !9}
!13 = distinct !{!13, !9}
